MPLINK 5.08, LINKER
Linker Map File - Created Fri Jun 12 13:43:50 2020

                                 Section Info
                  Section       Type    Address   Location Size(Bytes)
                ---------  ---------  ---------  ---------  ---------
                    .code       code   0x000000    program   0x00048e
                   .cinit    romdata   0x00048e    program   0x000002
.config_300000_BUILD/DEFAULT/PRODUCTION/TRANSMI    romdata   0x300000    program   0x000001
.config_300001_BUILD/DEFAULT/PRODUCTION/TRANSMI    romdata   0x300001    program   0x000001
.config_300002_BUILD/DEFAULT/PRODUCTION/TRANSMI    romdata   0x300002    program   0x000001
.config_300003_BUILD/DEFAULT/PRODUCTION/TRANSMI    romdata   0x300003    program   0x000001
.config_300005_BUILD/DEFAULT/PRODUCTION/TRANSMI    romdata   0x300005    program   0x000001
.config_300006_BUILD/DEFAULT/PRODUCTION/TRANSMI    romdata   0x300006    program   0x000001
.config_300008_BUILD/DEFAULT/PRODUCTION/TRANSMI    romdata   0x300008    program   0x000001
.config_300009_BUILD/DEFAULT/PRODUCTION/TRANSMI    romdata   0x300009    program   0x000001
.config_30000A_BUILD/DEFAULT/PRODUCTION/TRANSMI    romdata   0x30000a    program   0x000001
.config_30000B_BUILD/DEFAULT/PRODUCTION/TRANSMI    romdata   0x30000b    program   0x000001
.config_30000C_BUILD/DEFAULT/PRODUCTION/TRANSMI    romdata   0x30000c    program   0x000001
.config_30000D_BUILD/DEFAULT/PRODUCTION/TRANSMI    romdata   0x30000d    program   0x000001
               .udata_acs      udata   0x000000       data   0x000015



                              Program Memory Usage 
                               Start         End      
                           ---------   ---------      
                            0x000000    0x00048f      
                            0x300000    0x300003      
                            0x300005    0x300006      
                            0x300008    0x30000d      
            1180 out of 33048 program addresses used, program memory utilization is 3%



                              Symbols - Sorted by Name
                     Name    Address   Location    Storage File                     
                ---------  ---------  ---------  --------- ---------                
            Checksum_fail   0x0002b8    program     static C:\Users\1090168441\MPLABXProjects\Transmicion_NRF.X\Transmision_NRF.asm
         Checksum_no_fail   0x0002c6    program     static C:\Users\1090168441\MPLABXProjects\Transmicion_NRF.X\Transmision_NRF.asm
       Configuration_port   0x0000fe    program     static C:\Users\1090168441\MPLABXProjects\Transmicion_NRF.X\Transmision_NRF.asm
              Convert_ADC   0x000092    program     static C:\Users\1090168441\MPLABXProjects\Transmicion_NRF.X\Transmision_NRF.asm
                Delay_min   0x000484    program     static C:\Users\1090168441\MPLABXProjects\Transmicion_NRF.X\Transmision_NRF.asm
                Error_IRQ   0x00025c    program     static C:\Users\1090168441\MPLABXProjects\Transmicion_NRF.X\Transmision_NRF.asm
           Error_NRF24L01   0x0000c6    program     static C:\Users\1090168441\MPLABXProjects\Transmicion_NRF.X\Transmision_NRF.asm
               Exit_write   0x000332    program     static C:\Users\1090168441\MPLABXProjects\Transmicion_NRF.X\Transmision_NRF.asm
            Fail_NRF24L01   0x000068    program     static C:\Users\1090168441\MPLABXProjects\Transmicion_NRF.X\Transmision_NRF.asm
             Fail_message   0x00005c    program     static C:\Users\1090168441\MPLABXProjects\Transmicion_NRF.X\Transmision_NRF.asm
                   Finish   0x000074    program     static C:\Users\1090168441\MPLABXProjects\Transmicion_NRF.X\Transmision_NRF.asm
          Finish_checksum   0x0002b4    program     static C:\Users\1090168441\MPLABXProjects\Transmicion_NRF.X\Transmision_NRF.asm
         Finish_operation   0x000110    program     static C:\Users\1090168441\MPLABXProjects\Transmicion_NRF.X\Transmision_NRF.asm
            Finish_status   0x00023c    program     static C:\Users\1090168441\MPLABXProjects\Transmicion_NRF.X\Transmision_NRF.asm
                     Flag   0x00009c    program     static C:\Users\1090168441\MPLABXProjects\Transmicion_NRF.X\Transmision_NRF.asm
                  Get_IRQ   0x000204    program     static C:\Users\1090168441\MPLABXProjects\Transmicion_NRF.X\Transmision_NRF.asm
              Get_Mode_Tx   0x0001ce    program     static C:\Users\1090168441\MPLABXProjects\Transmicion_NRF.X\Transmision_NRF.asm
            Increment_i_1   0x00023e    program     static C:\Users\1090168441\MPLABXProjects\Transmicion_NRF.X\Transmision_NRF.asm
            Increment_i_2   0x000244    program     static C:\Users\1090168441\MPLABXProjects\Transmicion_NRF.X\Transmision_NRF.asm
            Increment_i_j   0x00024a    program     static C:\Users\1090168441\MPLABXProjects\Transmicion_NRF.X\Transmision_NRF.asm
                Jump_cont   0x0001ec    program     static C:\Users\1090168441\MPLABXProjects\Transmicion_NRF.X\Transmision_NRF.asm
              Jump_cont_2   0x0001f8    program     static C:\Users\1090168441\MPLABXProjects\Transmicion_NRF.X\Transmision_NRF.asm
              Jump_status   0x000222    program     static C:\Users\1090168441\MPLABXProjects\Transmicion_NRF.X\Transmision_NRF.asm
            Jump_status_2   0x000234    program     static C:\Users\1090168441\MPLABXProjects\Transmicion_NRF.X\Transmision_NRF.asm
                     LOOP   0x000026    program     static C:\Users\1090168441\MPLABXProjects\Transmicion_NRF.X\Transmision_NRF.asm
            MAX_RT_status   0x000346    program     static C:\Users\1090168441\MPLABXProjects\Transmicion_NRF.X\Transmision_NRF.asm
    Mode_Tx_configuration   0x00012c    program     static C:\Users\1090168441\MPLABXProjects\Transmicion_NRF.X\Transmision_NRF.asm
         Not_sent_message   0x0000b6    program     static C:\Users\1090168441\MPLABXProjects\Transmicion_NRF.X\Transmision_NRF.asm
       Read_configuration   0x000436    program     static C:\Users\1090168441\MPLABXProjects\Transmicion_NRF.X\Transmision_NRF.asm
Read_nRF24L01_Address_Register   0x000334    program     static C:\Users\1090168441\MPLABXProjects\Transmicion_NRF.X\Transmision_NRF.asm
              Read_status   0x000398    program     static C:\Users\1090168441\MPLABXProjects\Transmicion_NRF.X\Transmision_NRF.asm
      Reset_configuration   0x0003ac    program     static C:\Users\1090168441\MPLABXProjects\Transmicion_NRF.X\Transmision_NRF.asm
             SPI_transfer   0x000472    program     static C:\Users\1090168441\MPLABXProjects\Transmicion_NRF.X\Transmision_NRF.asm
Send_Data_TX_Mode_nRF24L01   0x00026a    program     static C:\Users\1090168441\MPLABXProjects\Transmicion_NRF.X\Transmision_NRF.asm
           Send_part_high   0x000076    program     static C:\Users\1090168441\MPLABXProjects\Transmicion_NRF.X\Transmision_NRF.asm
            Send_part_low   0x000084    program     static C:\Users\1090168441\MPLABXProjects\Transmicion_NRF.X\Transmision_NRF.asm
             Sent_message   0x0000a6    program     static C:\Users\1090168441\MPLABXProjects\Transmicion_NRF.X\Transmision_NRF.asm
                    Start   0x000004    program     static C:\Users\1090168441\MPLABXProjects\Transmicion_NRF.X\Transmision_NRF.asm
                Start_SPI   0x0000d8    program     static C:\Users\1090168441\MPLABXProjects\Transmicion_NRF.X\Transmision_NRF.asm
             TX_DS_status   0x00036c    program     static C:\Users\1090168441\MPLABXProjects\Transmicion_NRF.X\Transmision_NRF.asm
             Wait_IRQ_LOW   0x0001e0    program     static C:\Users\1090168441\MPLABXProjects\Transmicion_NRF.X\Transmision_NRF.asm
     Wait_TX_DS_or_MAX_RT   0x00020c    program     static C:\Users\1090168441\MPLABXProjects\Transmicion_NRF.X\Transmision_NRF.asm
           Wait_delay_min   0x000488    program     static C:\Users\1090168441\MPLABXProjects\Transmicion_NRF.X\Transmision_NRF.asm
            Wait_transfer   0x000476    program     static C:\Users\1090168441\MPLABXProjects\Transmicion_NRF.X\Transmision_NRF.asm
      Wait_transfer_write   0x000414    program     static C:\Users\1090168441\MPLABXProjects\Transmicion_NRF.X\Transmision_NRF.asm
       Wait_write_address   0x0002e0    program     static C:\Users\1090168441\MPLABXProjects\Transmicion_NRF.X\Transmision_NRF.asm
      Write_configuration   0x0003f2    program     static C:\Users\1090168441\MPLABXProjects\Transmicion_NRF.X\Transmision_NRF.asm
Write_nrf_Address_Register   0x0002de    program     static C:\Users\1090168441\MPLABXProjects\Transmicion_NRF.X\Transmision_NRF.asm
     Write_nrf_TX_Payload   0x00029e    program     static C:\Users\1090168441\MPLABXProjects\Transmicion_NRF.X\Transmision_NRF.asm
             Write_status   0x000458    program     static C:\Users\1090168441\MPLABXProjects\Transmicion_NRF.X\Transmision_NRF.asm
          message_send_rx   0x000042    program     static C:\Users\1090168441\MPLABXProjects\Transmicion_NRF.X\Transmision_NRF.asm
               contador_i   0x000009       data     static C:\Users\1090168441\MPLABXProjects\Transmicion_NRF.X\Transmision_NRF.asm
               contador_j   0x00000b       data     static C:\Users\1090168441\MPLABXProjects\Transmicion_NRF.X\Transmision_NRF.asm
              contador_tx   0x000014       data     static C:\Users\1090168441\MPLABXProjects\Transmicion_NRF.X\Transmision_NRF.asm
     data_configuration_A   0x000005       data     static C:\Users\1090168441\MPLABXProjects\Transmicion_NRF.X\Transmision_NRF.asm
     data_configuration_C   0x000004       data     static C:\Users\1090168441\MPLABXProjects\Transmicion_NRF.X\Transmision_NRF.asm
             data_content   0x000006       data     static C:\Users\1090168441\MPLABXProjects\Transmicion_NRF.X\Transmision_NRF.asm
              data_status   0x000003       data     static C:\Users\1090168441\MPLABXProjects\Transmicion_NRF.X\Transmision_NRF.asm
             data_to_send   0x000000       data     static C:\Users\1090168441\MPLABXProjects\Transmicion_NRF.X\Transmision_NRF.asm
             delay_min_tx   0x000001       data     static C:\Users\1090168441\MPLABXProjects\Transmicion_NRF.X\Transmision_NRF.asm
            delay_modo_tx   0x000002       data     static C:\Users\1090168441\MPLABXProjects\Transmicion_NRF.X\Transmision_NRF.asm
          enable_checksum   0x000011       data     static C:\Users\1090168441\MPLABXProjects\Transmicion_NRF.X\Transmision_NRF.asm
                  message   0x000013       data     static C:\Users\1090168441\MPLABXProjects\Transmicion_NRF.X\Transmision_NRF.asm
          message_to_send   0x000012       data     static C:\Users\1090168441\MPLABXProjects\Transmicion_NRF.X\Transmision_NRF.asm
         process_finished   0x00000f       data     static C:\Users\1090168441\MPLABXProjects\Transmicion_NRF.X\Transmision_NRF.asm
       read_status_config   0x00000d       data     static C:\Users\1090168441\MPLABXProjects\Transmicion_NRF.X\Transmision_NRF.asm
         register_address   0x000010       data     static C:\Users\1090168441\MPLABXProjects\Transmicion_NRF.X\Transmision_NRF.asm
      result_operation_tx   0x00000c       data     static C:\Users\1090168441\MPLABXProjects\Transmicion_NRF.X\Transmision_NRF.asm
                save_data   0x000007       data     static C:\Users\1090168441\MPLABXProjects\Transmicion_NRF.X\Transmision_NRF.asm
           save_data_read   0x000008       data     static C:\Users\1090168441\MPLABXProjects\Transmicion_NRF.X\Transmision_NRF.asm
                 trans_tx   0x00000e       data     static C:\Users\1090168441\MPLABXProjects\Transmicion_NRF.X\Transmision_NRF.asm



                              Symbols - Sorted by Address
                     Name    Address   Location    Storage File                     
                ---------  ---------  ---------  --------- ---------                
                    Start   0x000004    program     static C:\Users\1090168441\MPLABXProjects\Transmicion_NRF.X\Transmision_NRF.asm
                     LOOP   0x000026    program     static C:\Users\1090168441\MPLABXProjects\Transmicion_NRF.X\Transmision_NRF.asm
          message_send_rx   0x000042    program     static C:\Users\1090168441\MPLABXProjects\Transmicion_NRF.X\Transmision_NRF.asm
             Fail_message   0x00005c    program     static C:\Users\1090168441\MPLABXProjects\Transmicion_NRF.X\Transmision_NRF.asm
            Fail_NRF24L01   0x000068    program     static C:\Users\1090168441\MPLABXProjects\Transmicion_NRF.X\Transmision_NRF.asm
                   Finish   0x000074    program     static C:\Users\1090168441\MPLABXProjects\Transmicion_NRF.X\Transmision_NRF.asm
           Send_part_high   0x000076    program     static C:\Users\1090168441\MPLABXProjects\Transmicion_NRF.X\Transmision_NRF.asm
            Send_part_low   0x000084    program     static C:\Users\1090168441\MPLABXProjects\Transmicion_NRF.X\Transmision_NRF.asm
              Convert_ADC   0x000092    program     static C:\Users\1090168441\MPLABXProjects\Transmicion_NRF.X\Transmision_NRF.asm
                     Flag   0x00009c    program     static C:\Users\1090168441\MPLABXProjects\Transmicion_NRF.X\Transmision_NRF.asm
             Sent_message   0x0000a6    program     static C:\Users\1090168441\MPLABXProjects\Transmicion_NRF.X\Transmision_NRF.asm
         Not_sent_message   0x0000b6    program     static C:\Users\1090168441\MPLABXProjects\Transmicion_NRF.X\Transmision_NRF.asm
           Error_NRF24L01   0x0000c6    program     static C:\Users\1090168441\MPLABXProjects\Transmicion_NRF.X\Transmision_NRF.asm
                Start_SPI   0x0000d8    program     static C:\Users\1090168441\MPLABXProjects\Transmicion_NRF.X\Transmision_NRF.asm
       Configuration_port   0x0000fe    program     static C:\Users\1090168441\MPLABXProjects\Transmicion_NRF.X\Transmision_NRF.asm
         Finish_operation   0x000110    program     static C:\Users\1090168441\MPLABXProjects\Transmicion_NRF.X\Transmision_NRF.asm
    Mode_Tx_configuration   0x00012c    program     static C:\Users\1090168441\MPLABXProjects\Transmicion_NRF.X\Transmision_NRF.asm
              Get_Mode_Tx   0x0001ce    program     static C:\Users\1090168441\MPLABXProjects\Transmicion_NRF.X\Transmision_NRF.asm
             Wait_IRQ_LOW   0x0001e0    program     static C:\Users\1090168441\MPLABXProjects\Transmicion_NRF.X\Transmision_NRF.asm
                Jump_cont   0x0001ec    program     static C:\Users\1090168441\MPLABXProjects\Transmicion_NRF.X\Transmision_NRF.asm
              Jump_cont_2   0x0001f8    program     static C:\Users\1090168441\MPLABXProjects\Transmicion_NRF.X\Transmision_NRF.asm
                  Get_IRQ   0x000204    program     static C:\Users\1090168441\MPLABXProjects\Transmicion_NRF.X\Transmision_NRF.asm
     Wait_TX_DS_or_MAX_RT   0x00020c    program     static C:\Users\1090168441\MPLABXProjects\Transmicion_NRF.X\Transmision_NRF.asm
              Jump_status   0x000222    program     static C:\Users\1090168441\MPLABXProjects\Transmicion_NRF.X\Transmision_NRF.asm
            Jump_status_2   0x000234    program     static C:\Users\1090168441\MPLABXProjects\Transmicion_NRF.X\Transmision_NRF.asm
            Finish_status   0x00023c    program     static C:\Users\1090168441\MPLABXProjects\Transmicion_NRF.X\Transmision_NRF.asm
            Increment_i_1   0x00023e    program     static C:\Users\1090168441\MPLABXProjects\Transmicion_NRF.X\Transmision_NRF.asm
            Increment_i_2   0x000244    program     static C:\Users\1090168441\MPLABXProjects\Transmicion_NRF.X\Transmision_NRF.asm
            Increment_i_j   0x00024a    program     static C:\Users\1090168441\MPLABXProjects\Transmicion_NRF.X\Transmision_NRF.asm
                Error_IRQ   0x00025c    program     static C:\Users\1090168441\MPLABXProjects\Transmicion_NRF.X\Transmision_NRF.asm
Send_Data_TX_Mode_nRF24L01   0x00026a    program     static C:\Users\1090168441\MPLABXProjects\Transmicion_NRF.X\Transmision_NRF.asm
     Write_nrf_TX_Payload   0x00029e    program     static C:\Users\1090168441\MPLABXProjects\Transmicion_NRF.X\Transmision_NRF.asm
          Finish_checksum   0x0002b4    program     static C:\Users\1090168441\MPLABXProjects\Transmicion_NRF.X\Transmision_NRF.asm
            Checksum_fail   0x0002b8    program     static C:\Users\1090168441\MPLABXProjects\Transmicion_NRF.X\Transmision_NRF.asm
         Checksum_no_fail   0x0002c6    program     static C:\Users\1090168441\MPLABXProjects\Transmicion_NRF.X\Transmision_NRF.asm
Write_nrf_Address_Register   0x0002de    program     static C:\Users\1090168441\MPLABXProjects\Transmicion_NRF.X\Transmision_NRF.asm
       Wait_write_address   0x0002e0    program     static C:\Users\1090168441\MPLABXProjects\Transmicion_NRF.X\Transmision_NRF.asm
               Exit_write   0x000332    program     static C:\Users\1090168441\MPLABXProjects\Transmicion_NRF.X\Transmision_NRF.asm
Read_nRF24L01_Address_Register   0x000334    program     static C:\Users\1090168441\MPLABXProjects\Transmicion_NRF.X\Transmision_NRF.asm
            MAX_RT_status   0x000346    program     static C:\Users\1090168441\MPLABXProjects\Transmicion_NRF.X\Transmision_NRF.asm
             TX_DS_status   0x00036c    program     static C:\Users\1090168441\MPLABXProjects\Transmicion_NRF.X\Transmision_NRF.asm
              Read_status   0x000398    program     static C:\Users\1090168441\MPLABXProjects\Transmicion_NRF.X\Transmision_NRF.asm
      Reset_configuration   0x0003ac    program     static C:\Users\1090168441\MPLABXProjects\Transmicion_NRF.X\Transmision_NRF.asm
      Write_configuration   0x0003f2    program     static C:\Users\1090168441\MPLABXProjects\Transmicion_NRF.X\Transmision_NRF.asm
      Wait_transfer_write   0x000414    program     static C:\Users\1090168441\MPLABXProjects\Transmicion_NRF.X\Transmision_NRF.asm
       Read_configuration   0x000436    program     static C:\Users\1090168441\MPLABXProjects\Transmicion_NRF.X\Transmision_NRF.asm
             Write_status   0x000458    program     static C:\Users\1090168441\MPLABXProjects\Transmicion_NRF.X\Transmision_NRF.asm
             SPI_transfer   0x000472    program     static C:\Users\1090168441\MPLABXProjects\Transmicion_NRF.X\Transmision_NRF.asm
            Wait_transfer   0x000476    program     static C:\Users\1090168441\MPLABXProjects\Transmicion_NRF.X\Transmision_NRF.asm
                Delay_min   0x000484    program     static C:\Users\1090168441\MPLABXProjects\Transmicion_NRF.X\Transmision_NRF.asm
           Wait_delay_min   0x000488    program     static C:\Users\1090168441\MPLABXProjects\Transmicion_NRF.X\Transmision_NRF.asm
             data_to_send   0x000000       data     static C:\Users\1090168441\MPLABXProjects\Transmicion_NRF.X\Transmision_NRF.asm
             delay_min_tx   0x000001       data     static C:\Users\1090168441\MPLABXProjects\Transmicion_NRF.X\Transmision_NRF.asm
            delay_modo_tx   0x000002       data     static C:\Users\1090168441\MPLABXProjects\Transmicion_NRF.X\Transmision_NRF.asm
              data_status   0x000003       data     static C:\Users\1090168441\MPLABXProjects\Transmicion_NRF.X\Transmision_NRF.asm
     data_configuration_C   0x000004       data     static C:\Users\1090168441\MPLABXProjects\Transmicion_NRF.X\Transmision_NRF.asm
     data_configuration_A   0x000005       data     static C:\Users\1090168441\MPLABXProjects\Transmicion_NRF.X\Transmision_NRF.asm
             data_content   0x000006       data     static C:\Users\1090168441\MPLABXProjects\Transmicion_NRF.X\Transmision_NRF.asm
                save_data   0x000007       data     static C:\Users\1090168441\MPLABXProjects\Transmicion_NRF.X\Transmision_NRF.asm
           save_data_read   0x000008       data     static C:\Users\1090168441\MPLABXProjects\Transmicion_NRF.X\Transmision_NRF.asm
               contador_i   0x000009       data     static C:\Users\1090168441\MPLABXProjects\Transmicion_NRF.X\Transmision_NRF.asm
               contador_j   0x00000b       data     static C:\Users\1090168441\MPLABXProjects\Transmicion_NRF.X\Transmision_NRF.asm
      result_operation_tx   0x00000c       data     static C:\Users\1090168441\MPLABXProjects\Transmicion_NRF.X\Transmision_NRF.asm
       read_status_config   0x00000d       data     static C:\Users\1090168441\MPLABXProjects\Transmicion_NRF.X\Transmision_NRF.asm
                 trans_tx   0x00000e       data     static C:\Users\1090168441\MPLABXProjects\Transmicion_NRF.X\Transmision_NRF.asm
         process_finished   0x00000f       data     static C:\Users\1090168441\MPLABXProjects\Transmicion_NRF.X\Transmision_NRF.asm
         register_address   0x000010       data     static C:\Users\1090168441\MPLABXProjects\Transmicion_NRF.X\Transmision_NRF.asm
          enable_checksum   0x000011       data     static C:\Users\1090168441\MPLABXProjects\Transmicion_NRF.X\Transmision_NRF.asm
          message_to_send   0x000012       data     static C:\Users\1090168441\MPLABXProjects\Transmicion_NRF.X\Transmision_NRF.asm
                  message   0x000013       data     static C:\Users\1090168441\MPLABXProjects\Transmicion_NRF.X\Transmision_NRF.asm
              contador_tx   0x000014       data     static C:\Users\1090168441\MPLABXProjects\Transmicion_NRF.X\Transmision_NRF.asm


